(dp0
S'username'
p1
S'FixyNeko'
p2
sS'useremail'
p3
S'felix@dhumes.fr'
p4
sS'firstname'
p5
S'felix'
p6
sS'lastname'
p7
S'dhumes'
p8
sS'birthdate'
p9
S'Facultatif'
p10
sS'userpwd'
p11
S'06705293aee65d09dcfc830b21431da3c17ada2faf5bb13f3cc0d5986e4e19bb687351dc520bc74a42498844687b23165145435dc5f73edbd966719c56a0762b'
p12
s.