(dp0
S'username'
p1
S'test'
p2
sS'useremail'
p3
S'test@test.com'
p4
sS'firstname'
p5
S'test'
p6
sS'lastname'
p7
S'test'
p8
sS'birthdate'
p9
S'Facultatif'
p10
sS'userpwd'
p11
S'f9b17bab6d8ffb9fa75a789b7f5dd4e7c22702d23b7686b5e2e84d784965a55ece90b8bdf4a1eeaa2c576d1588b1f1f82737b28c95bf87d67ef09c30139b5c46'
p12
s.