(dp0
S'username'
p1
S'aaaa'
p2
sS'useremail'
p3
S'aaaaaaaaaaaaaa@aaaaaaaaaaa.aa'
p4
sS'firstname'
p5
S'a'
p6
sS'lastname'
p7
g6
sS'birthdate'
p8
S'Facultatif'
p9
sS'userpwd'
p10
S'f64855a794b36567ac3c9649b8cd3a21838ce568c69d1c4728bd8dd3dba1db2ab52e2ce2804a7175d85a5ce3f5df7af3c9f2c97ee5c8441b707937b058fbf8ef'
p11
s.